ccopy_reg
_reconstructor
p1
(ctensorflow.python.platform.flags
_FlagValues
p2
c__builtin__
object
p3
NtRp4
(dp5
S'__flags'
p6
(dp7
S'grad_clip'
p8
I5
sS'vocab_size'
p9
I2471
sS'utils_dir'
p10
S'../utils'
p11
sS'keep_prob'
p12
F0.5
sS'test_data_path'
p13
S'./Data/train_10000.csv'
p14
sS'emb_size'
p15
I100
sS'train_data_path'
p16
S'./Data/train_20000.csv'
p17
sS'CRF'
p18
I00
sS'num_layers'
p19
I1
sS'weight_decay'
p20
F0.0050000000000000001
sS'is_attention'
p21
I01
sS'lstm_size'
p22
I256
sS'save_every_n'
p23
I200
sS'num_steps'
p24
I250
sS'loss_weight'
p25
F5
sS'word2vec_dir'
p26
S'../word2vec'
p27
sS'train_data_label_path'
p28
S'./Data/train_20000_label.txt'
p29
sS'learning_rate'
p30
F0.001
sS'batch_size'
p31
I10
sS'min_learning_rate'
p32
F0.00050000000000000001
sS'num_classes'
p33
I17
sS'epochs'
p34
I100
sS'parse_data_path'
p35
S'./Data/taiyi_semi_test.csv'
p36
sS'mode'
p37
S'1'
sS'save_dir'
p38
S'./save'
p39
sS'test_data_label_path'
p40
S'./Data/train_10000_label.txt'
p41
ssS'__parsed'
p42
I01
sb.