(dp1
Vj
I27
sVvd
p2
I1
sVad
p3
I2
sVag
p4
I3
sVvg
p5
I4
sVnrfg
p6
I5
sVzg
p7
I6
sVvn
p8
I7
sVan
p9
I8
sVvq
p10
I9
sVu
I48
sVrr
p11
I11
sVeng
p12
I10
sVunknown
p13
I55
sVrz
p14
I14
sVng
p15
I15
sVnz
p16
I16
sVtg
p17
I17
sVnr
p18
I18
sVns
p19
I19
sVnt
p20
I20
sVdf
p21
I21
sVdg
p22
I22
sVuj
p23
I50
sVc
I30
sS'yg'
p24
I25
sVuz
p25
I39
sVx
I52
sVnrt
p26
I28
sVa
I29
sVmg
p27
I24
sVb
I31
sVe
I32
sVd
I33
sVg
I34
sVf
I35
sVi
I36
sVh
I37
sVk
I38
sVuv
p28
I0
sVm
I40
sVl
I41
sVo
I42
sVn
I43
sVq
I44
sVul
p29
I12
sVs
I46
sVr
I47
sVmq
p30
I13
sVt
I49
sVv
I23
sVy
I51
sVud
p31
I26
sVug
p32
I53
sVz
I54
sVp
I45
s.